; Function Attrs: cold nounwind optsize uwtable
define internal noundef i32 @deint_vaapi_init(ptr noundef %0) #0 {
  %2 = getelementptr inbounds nuw i8, ptr %0, i64 72
  %3 = load ptr, ptr %2, align 8, !tbaa !4
  tail call void @ff_vaapi_vpp_ctx_init(ptr noundef %0) #6
  %4 = getelementptr inbounds nuw i8, ptr %3, i64 136
  store ptr @deint_vaapi_pipeline_uninit, ptr %4, align 8, !tbaa !20
  %5 = getelementptr inbounds nuw i8, ptr %3, i64 128
  store ptr @deint_vaapi_build_filter_params, ptr %5, align 8, !tbaa !26
  %6 = getelementptr inbounds nuw i8, ptr %3, i64 64
  store i32 -1, ptr %6, align 8, !tbaa !27
  ret i32 0
}